(iMicroBatch
MicroBatch
p0
(dp1
S'sensor_id'
p2
I1
sS'timestamp'
p3
(I9
F61.83728761791101
tp4
sS'micro_batch_id'
p5
I10
sS'spatial_coordinates'
p6
(F3.2127525974139557
F2.550981052140303
tp7
sS'device_endpoint'
p8
V10.24.24.106
p9
sS'micro_batch_prop'
p10
(lp11
(Vfoo4
p12
Vbar4
p13
tp14
a(Vfoo1
p15
Vbar1
p16
tp17
a(Vfoo2
p18
Vbar2
p19
tp20
a(Vfoo3
p21
Vbar3
p22
tp23
asS'payload'
p24
S'\xe7\xda\xfaZ\xf4\x15\x12\x05E(\xc90$\xd9zI\xf2\x18D\xd2\x1a\x88\xb8\x15\x8d\x1dd\xa9\x19jq'
p25
sS'size'
p26
I31
sb.