(iMicroBatch
MicroBatch
p0
(dp1
S'sensor_id'
p2
I1
sS'timestamp'
p3
(I9
F53.24902266856851
tp4
sS'micro_batch_id'
p5
I11
sS'spatial_coordinates'
p6
(F2.2221251264667403
F2.6128322414145906
tp7
sS'device_endpoint'
p8
V10.24.24.106
p9
sS'micro_batch_prop'
p10
(lp11
(Vfoo4
p12
Vbar4
p13
tp14
a(Vfoo1
p15
Vbar1
p16
tp17
a(Vfoo2
p18
Vbar2
p19
tp20
a(Vfoo3
p21
Vbar3
p22
tp23
asS'payload'
p24
S'\xba;]\x00@\xb7\xd2\nz\xafh\xbbf<\x0e\xdf\xff\\\xd7\xce\xd2\xa5\x85|8 7\xdbi\xfc\xfd\x9f\x86\x96\xbc\xc8R\x908V\xf0\xc0\xae\x90'
p25
sS'size'
p26
I44
sb.