(iMicroBatch
MicroBatch
p0
(dp1
S'sensor_id'
p2
I1
sS'timestamp'
p3
(I9
F28.744837102906956
tp4
sS'micro_batch_id'
p5
I12
sS'spatial_coordinates'
p6
(F2.861484940123647
F1.2804411636622288
tp7
sS'device_endpoint'
p8
V10.24.24.106
p9
sS'micro_batch_prop'
p10
(lp11
(Vfoo4
p12
Vbar4
p13
tp14
a(Vfoo1
p15
Vbar1
p16
tp17
a(Vfoo2
p18
Vbar2
p19
tp20
a(Vfoo3
p21
Vbar3
p22
tp23
asS'payload'
p24
S'\xe6\xa7\xb0|~:o\x87,|\xe6\xb3\xbd]}3k\x9a\x1e\xb2\x1fy`\x83\x01\xa2\xbeg1\xf6\xb0\xaeV\xe4'
p25
sS'size'
p26
I34
sb.