(iMicroBatch
MicroBatch
p0
(dp1
S'sensor_id'
p2
I1
sS'timestamp'
p3
(I9
F40.48807185885897
tp4
sS'micro_batch_id'
p5
I14
sS'spatial_coordinates'
p6
(F2.7420010318340453
F1.2998289520852406
tp7
sS'device_endpoint'
p8
V10.24.24.106
p9
sS'micro_batch_prop'
p10
(lp11
(Vfoo4
p12
Vbar4
p13
tp14
a(Vfoo1
p15
Vbar1
p16
tp17
a(Vfoo2
p18
Vbar2
p19
tp20
a(Vfoo3
p21
Vbar3
p22
tp23
asS'payload'
p24
S"\x141\xd5\x96\x02[\xb6\xef\xea\x0b\x13\xf9T\xcd\x06\x80\xe0\xe6\r&\xeb\x05\xb5\xca]\x05\x15\xc5\x94j\xba\xea\x84'"
p25
sS'size'
p26
I34
sb.