(iMicroBatch
MicroBatch
p0
(dp1
S'sensor_id'
p2
I1
sS'timestamp'
p3
(I9
F37.28251400289684
tp4
sS'micro_batch_id'
p5
I7
sS'spatial_coordinates'
p6
(F3.956242872594263
F3.572500038782805
tp7
sS'device_endpoint'
p8
V10.24.24.106
p9
sS'micro_batch_prop'
p10
(lp11
(Vfoo4
p12
Vbar4
p13
tp14
a(Vfoo1
p15
Vbar1
p16
tp17
a(Vfoo2
p18
Vbar2
p19
tp20
a(Vfoo3
p21
Vbar3
p22
tp23
asS'payload'
p24
S'\xc4V\x1f\xbd\x8f\xba\xadY\xf7\x94\xae\xdf\xf4\x81\x9c\xe7\xe4 ~\x82\x11\x96=\xbb\xce\x86AO\x989~\xa7U\x05|\xbc\xf0\xeb\x9f\xda+\xc5<'
p25
sS'size'
p26
I43
sb.