(iMicroBatch
MicroBatch
p0
(dp1
S'sensor_id'
p2
I1
sS'timestamp'
p3
(I9
F43.369308321601885
tp4
sS'micro_batch_id'
p5
I8
sS'spatial_coordinates'
p6
(F1.892057202805177
F2.7940244486406476
tp7
sS'device_endpoint'
p8
V10.24.24.106
p9
sS'micro_batch_prop'
p10
(lp11
(Vfoo4
p12
Vbar4
p13
tp14
a(Vfoo1
p15
Vbar1
p16
tp17
a(Vfoo2
p18
Vbar2
p19
tp20
a(Vfoo3
p21
Vbar3
p22
tp23
asS'payload'
p24
S'-\x15\xa4\r4fgnMM\x13\xbf\xedA\xa6U\xc4?\x1f=\x8c\x1e+\xfc\x97\xae\x1b\xa9\xe1\n\x99\x02n\x9f\x8f'
p25
sS'size'
p26
I35
sb.