(iMicroBatch
MicroBatch
p0
(dp1
S'sensor_id'
p2
I1
sS'timestamp'
p3
(F-31.527570777407462
I53
tp4
sS'micro_batch_id'
p5
L109270880364530653503888899861309780927L
sS'spatial_coordinates'
p6
(F3.0127539961373393
F3.798257043512333
tp7
sS'device_endpoint'
p8
V10.24.24.106
p9
sS'micro_batch_prop'
p10
(lp11
(Vfoo4
p12
Vbar4
p13
tp14
a(Vfoo1
p15
Vbar1
p16
tp17
a(Vfoo2
p18
Vbar2
p19
tp20
a(Vfoo3
p21
Vbar3
p22
tp23
asS'payload'
p24
S'J\xb3\xb79\x15\x1a\xed\x80=8\xa1C\xab\xff\x1e,\xd2q\x93\xa8\xa2\x12\xb0U\xb5V6\xb9\xd7\xab\xbb]B\xdd\xf0=\x0e\xc3\xc9\xfa\xfc\xe4\nS\xedX\xbf\xd5\x9c\xb2HvS\xa8'
p25
sS'size'
p26
I54
sb.