(iMicroBatch
MicroBatch
p0
(dp1
S'sensor_id'
p2
I1
sS'timestamp'
p3
(F-7.533574592724776
I53
tp4
sS'micro_batch_id'
p5
L109277714744285458972657021900432569279L
sS'spatial_coordinates'
p6
(F2.1751490994532925
F2.992229561418677
tp7
sS'device_endpoint'
p8
V10.24.24.106
p9
sS'micro_batch_prop'
p10
(lp11
(Vfoo4
p12
Vbar4
p13
tp14
a(Vfoo1
p15
Vbar1
p16
tp17
a(Vfoo2
p18
Vbar2
p19
tp20
a(Vfoo3
p21
Vbar3
p22
tp23
asS'payload'
p24
S'\xf8\xb9R\x0e\x12\x1cI\xa2\xf6\x07C)\xaeT\xf0\xdd\xeb\x03\xc9\xa0\xe3\xe9\xea+\xb3\xd2<\xb7\\#q\xda\x95\xb7A\xc9\x1ag\xbb\x84\xc3\xafXFZ\xdc7\x07\x1f\xf0i\x91\xe8\x94\xdaK\x83'
p25
sS'size'
p26
I57
sb.