(iMicroBatch
MicroBatch
p0
(dp1
S'sensor_id'
p2
I1
sS'timestamp'
p3
(F5.69030836790229
I53
tp4
sS'micro_batch_id'
p5
L109279662885573522217348194369131213759L
sS'spatial_coordinates'
p6
(F1.2561661828152453
F3.617050345233891
tp7
sS'device_endpoint'
p8
V10.24.24.106
p9
sS'micro_batch_prop'
p10
(lp11
(Vfoo4
p12
Vbar4
p13
tp14
a(Vfoo1
p15
Vbar1
p16
tp17
a(Vfoo2
p18
Vbar2
p19
tp20
a(Vfoo3
p21
Vbar3
p22
tp23
asS'payload'
p24
S'Hl\xf6g\xb0\xdc)\xad:,K\xbd5\xe7\x97\x05\xf4\xaa\xca\xde\x1d"\xdf\xb5\x8ev\x17NA\xf5.\xcfiJ\x02\x0e\x8b\xbb4'
p25
sS'size'
p26
I39
sb.