(iMicroBatch
MicroBatch
p0
(dp1
S'sensor_id'
p2
I1
sS'timestamp'
p3
(F32.21329305435025
I53
tp4
sS'micro_batch_id'
p5
L109279216831018566910264420147625161663L
sS'spatial_coordinates'
p6
(F1.0944098307070202
F2.945272182633132
tp7
sS'device_endpoint'
p8
V10.24.24.106
p9
sS'micro_batch_prop'
p10
(lp11
(Vfoo4
p12
Vbar4
p13
tp14
a(Vfoo1
p15
Vbar1
p16
tp17
a(Vfoo2
p18
Vbar2
p19
tp20
a(Vfoo3
p21
Vbar3
p22
tp23
asS'payload'
p24
S'\t\x94\x8dE\x01\xe1\x1c\xc4}N]{SH\xac|1\xe6\x89\xd9mrb;v.q[\xc2hc'
p25
sS'size'
p26
I31
sb.