(iMicroBatch
MicroBatch
p0
(dp1
S'sensor_id'
p2
I1
sS'timestamp'
p3
(F33.649354312925354
I53
tp4
sS'micro_batch_id'
p5
L109281218134403677228167808656932303807L
sS'spatial_coordinates'
p6
(F3.990474645604327
F1.5506160097766464
tp7
sS'device_endpoint'
p8
V10.24.24.106
p9
sS'micro_batch_prop'
p10
(lp11
(Vfoo4
p12
Vbar4
p13
tp14
a(Vfoo1
p15
Vbar1
p16
tp17
a(Vfoo2
p18
Vbar2
p19
tp20
a(Vfoo3
p21
Vbar3
p22
tp23
asS'payload'
p24
S'H\xe2AE\xda\xa5V|F\xb16\xa5C\x9e\x8b\x82}\t\x95\xdf\xefOlS\x02\x7f\x0f\xb5\xca\x1aR\x17;\x97\xdf6\xe7\n\x9cj\x04f<\x89p'
p25
sS'size'
p26
I45
sb.