(iMicroBatch
MicroBatch
p0
(dp1
S'sensor_id'
p2
I1
sS'timestamp'
p3
(F-24.550699447474074
I53
tp4
sS'micro_batch_id'
p5
L109280837046941983615070584420679250879L
sS'spatial_coordinates'
p6
(F3.278650291480342
F2.4548649636449773
tp7
sS'device_endpoint'
p8
V10.24.24.106
p9
sS'micro_batch_prop'
p10
(lp11
(Vfoo4
p12
Vbar4
p13
tp14
a(Vfoo1
p15
Vbar1
p16
tp17
a(Vfoo2
p18
Vbar2
p19
tp20
a(Vfoo3
p21
Vbar3
p22
tp23
asS'payload'
p24
S'~\xb1\xe3@\xf96*?\xe1\x81\xc8%!~\xd5\xe8\xb8\xb5`\x9d9\xb7\xb9w\xbc\x82\xf3\x15\x1ex\xfa\x03\r\xaf\xdd\xaaEE5\x17\x11m[|1Q\xc9\xd0\xc6a\xec\xd4\xf8\xed\xb2\x11\xf5\xfa\x02'
p25
sS'size'
p26
I59
sb.