(iMicroBatch
MicroBatch
p0
(dp1
S'sensor_id'
p2
I1
sS'timestamp'
p3
(F24.181455698094325
I53
tp4
sS'micro_batch_id'
p5
L109281669814158171049225109345310569407L
sS'spatial_coordinates'
p6
(F2.3414276758247636
F1.8150538149779893
tp7
sS'device_endpoint'
p8
V10.24.24.106
p9
sS'micro_batch_prop'
p10
(lp11
(Vfoo4
p12
Vbar4
p13
tp14
a(Vfoo1
p15
Vbar1
p16
tp17
a(Vfoo2
p18
Vbar2
p19
tp20
a(Vfoo3
p21
Vbar3
p22
tp23
asS'payload'
p24
S'\xa1\xf2\xf6\x99\x07vl\xa6\xc6c"\xa6QS^v\xc3\n\xd3fj\x88\xd7B\xf9\x80\xfa7"\xfa\xe8@\xe8\xa5\xd0\xd59\xdf]\xa1\xc0\xed\xad*\xe3\xd9\x16\x86\x81\xe4\x8b\x1a'
p25
sS'size'
p26
I52
sb.