(iMicroBatch
MicroBatch
p0
(dp1
S'sensor_id'
p2
I1
sS'timestamp'
p3
(F4.217040598327223
I48
tp4
sS'micro_batch_id'
p5
L128906992958555870218824647879804949916L
sS'spatial_coordinates'
p6
(F3.5828470480997137
F3.8315627943005945
tp7
sS'micro_batch_prop'
p8
(lp9
(Vfoo4
p10
Vbar4
p11
tp12
a(Vfoo1
p13
Vbar1
p14
tp15
a(Vfoo2
p16
Vbar2
p17
tp18
a(Vfoo3
p19
Vbar3
p20
tp21
asS'payload'
p22
S'\xf8\x82\x84/\xcaij\xa4 \x19R\x07\xe2\xb3\xb5\xf5\xab\xc9\x8f\xe5H\x94\x02\x07F/\x7f\x12\x16Z\xabx\xf4\x7f\xf69"WiTa\xaf\x82\x88<\xfcn\t\x00\xa5\xe5'
p23
sS'size'
p24
I51
sb.