(iMicroBatch
MicroBatch
p0
(dp1
S'sensor_id'
p2
I1
sS'timestamp'
p3
(F-7.10680704594602
I49
tp4
sS'micro_batch_id'
p5
L188372668009162394821584964136836896156L
sS'spatial_coordinates'
p6
(F1.5311492939862557
F3.926820596345987
tp7
sS'micro_batch_prop'
p8
(lp9
(Vfoo4
p10
Vbar4
p11
tp12
a(Vfoo1
p13
Vbar1
p14
tp15
a(Vfoo2
p16
Vbar2
p17
tp18
a(Vfoo3
p19
Vbar3
p20
tp21
asS'payload'
p22
S"\xceI6\x03\x91\xfcA\xbd\x88\x80\x80\x9b\n'F\x07\xcc\x08\x82_FPOo\xc8Wd\xb3\x9d\xa5\xee\xb5\xefZS\xd8Q:Y\x0e\x984\x92\x16M\xb6B^!\xc0\xd1\xa6,n}\xd4_\xd1>0Y\xec\xba\xf8\xedb"
p23
sS'size'
p24
I66
sb.