(iMicroBatch
MicroBatch
p0
(dp1
S'sensor_id'
p2
I1
sS'timestamp'
p3
(F-27.49928661923191
I23
tp4
sS'micro_batch_id'
p5
L266926328943948244883248811868359193535L
sS'spatial_coordinates'
p6
(F3.527336380807524
F3.6447088692059495
tp7
sS'device_endpoint'
p8
V10.24.24.106
p9
sS'micro_batch_prop'
p10
(lp11
(Vfoo4
p12
Vbar4
p13
tp14
a(Vfoo1
p15
Vbar1
p16
tp17
a(Vfoo2
p18
Vbar2
p19
tp20
a(Vfoo3
p21
Vbar3
p22
tp23
asS'payload'
p24
S'\x99z\xb8@\xef@i\xea\x82p\x00\xb6\x86\xc9y\x06(@\x01\x9b"\xe6JWx\xa81Q\xf3K\xfb\x89cC}s\xdd)~l'
p25
sS'size'
p26
I40
sb.