(iMicroBatch
MicroBatch
p0
(dp1
S'sensor_id'
p2
I1
sS'timestamp'
p3
(F-68.0156273067972
I23
tp4
sS'micro_batch_id'
p5
L266936232622718852953705056696713311167L
sS'spatial_coordinates'
p6
(F2.6482549663895294
F2.016152865175084
tp7
sS'device_endpoint'
p8
V10.24.24.106
p9
sS'micro_batch_prop'
p10
(lp11
(Vfoo4
p12
Vbar4
p13
tp14
a(Vfoo1
p15
Vbar1
p16
tp17
a(Vfoo2
p18
Vbar2
p19
tp20
a(Vfoo3
p21
Vbar3
p22
tp23
asS'payload'
p24
S'\x0e\x84Uhj\xa7\xcd\xb3D\x00\x7fF\xb6\xf3\xea\x08#tA\xff\xc7\xb5$:>\x92x&^\xa2\xa5\xfc~\x8c\x1aO\xa9\x93\x84t\xc0\xa2\x00\xb4\x83\x1e'
p25
sS'size'
p26
I46
sb.