(iMicroBatch
MicroBatch
p0
(dp1
S'sensor_id'
p2
I1
sS'timestamp'
p3
(F-24.60183031486423
I23
tp4
sS'micro_batch_id'
p5
L266939830294350463181010399274471486399L
sS'spatial_coordinates'
p6
(F3.940533695911679
F2.2433668767791994
tp7
sS'device_endpoint'
p8
V10.24.24.106
p9
sS'micro_batch_prop'
p10
(lp11
(Vfoo4
p12
Vbar4
p13
tp14
a(Vfoo1
p15
Vbar1
p16
tp17
a(Vfoo2
p18
Vbar2
p19
tp20
a(Vfoo3
p21
Vbar3
p22
tp23
asS'payload'
p24
S'\x99\xbf\xeac\r\xef26H\xc0Y\xf4\xe5\xbc\xe8e\xc6\x996\xa1\xca+f\xeb0\xdf\xe7\xbfd9\xc2j'
p25
sS'size'
p26
I32
sb.