(iMicroBatch
MicroBatch
p0
(dp1
S'sensor_id'
p2
I1
sS'timestamp'
p3
(F-30.34814005283492
I23
tp4
sS'micro_batch_id'
p5
L266939260564633823108878656799879689151L
sS'spatial_coordinates'
p6
(F2.20677247395348
F2.6850665417972737
tp7
sS'device_endpoint'
p8
V10.24.24.106
p9
sS'micro_batch_prop'
p10
(lp11
(Vfoo4
p12
Vbar4
p13
tp14
a(Vfoo1
p15
Vbar1
p16
tp17
a(Vfoo2
p18
Vbar2
p19
tp20
a(Vfoo3
p21
Vbar3
p22
tp23
asS'payload'
p24
S'F\x98jA\xc0|?x~\x8dr\x931\x0c]1\x14V\xefo \x14\t\xa8Q\x92T\xa3 \x19&\x1d\xc1\xe2'
p25
sS'size'
p26
I34
sb.