(iMicroBatch
MicroBatch
p0
(dp1
S'sensor_id'
p2
I1
sS'timestamp'
p3
(F-33.917300273296284
I23
tp4
sS'micro_batch_id'
p5
L266937303549791558261720319531488867263L
sS'spatial_coordinates'
p6
(F2.7278272829336316
F3.5933234086783545
tp7
sS'device_endpoint'
p8
V10.24.24.106
p9
sS'micro_batch_prop'
p10
(lp11
(Vfoo4
p12
Vbar4
p13
tp14
a(Vfoo1
p15
Vbar1
p16
tp17
a(Vfoo2
p18
Vbar2
p19
tp20
a(Vfoo3
p21
Vbar3
p22
tp23
asS'payload'
p24
S"h\xa4\x97e`o\xc7\x19\xfa\xc97\xdc\x8b\xed\xbb\xa9h\t\x16\xd0\xcf\x10F\x91\xf2\x92+\xfd4l\xef\xb2($t\xb4L\x8e\\~\xadc'Tn\xb7\x91@KM\x9a\x06\xe01\xb4\x97Drbk#`LS\xbb\xcb\xb0\xa7"
p25
sS'size'
p26
I68
sb.