(iMicroBatch
MicroBatch
p0
(dp1
S'sensor_id'
p2
I1
sS'timestamp'
p3
(F-29.97010011107296
I23
tp4
sS'micro_batch_id'
p5
L266936763372179536009145042034961118143L
sS'spatial_coordinates'
p6
(F1.2510558331464838
F3.1675828830967525
tp7
sS'device_endpoint'
p8
V10.24.24.106
p9
sS'micro_batch_prop'
p10
(lp11
(Vfoo4
p12
Vbar4
p13
tp14
a(Vfoo1
p15
Vbar1
p16
tp17
a(Vfoo2
p18
Vbar2
p19
tp20
a(Vfoo3
p21
Vbar3
p22
tp23
asS'payload'
p24
S'\xbd>V\x86\x9fBz\xda\xf6XE\xe1\xe5\xbe\xec{\x05\x88\x1e\xa4\x8b\xd2)F/\xeb\x12_5\xbd\xde\xad\x98\xbf\xd6'
p25
sS'size'
p26
I35
sb.