(iMicroBatch
MicroBatch
p0
(dp1
S'sensor_id'
p2
I1
sS'timestamp'
p3
(F-14.82971766674143
I23
tp4
sS'micro_batch_id'
p5
L266941894821809259883124358101839344575L
sS'spatial_coordinates'
p6
(F2.114825075318185
F1.4792533536848147
tp7
sS'device_endpoint'
p8
V10.24.24.106
p9
sS'micro_batch_prop'
p10
(lp11
(Vfoo4
p12
Vbar4
p13
tp14
a(Vfoo1
p15
Vbar1
p16
tp17
a(Vfoo2
p18
Vbar2
p19
tp20
a(Vfoo3
p21
Vbar3
p22
tp23
asS'payload'
p24
S'A\x83u\xc7\xa6\xec\xb1\xec\x1fg\xa0\x06\n5?"\x8e\xa1\x1a,\xa0v\x93Ej9D\xcfc6\xf4\x9dc\x02\xa1\x04{\xc2\xed\xa1\xa0\x9f\x18\xb4D\x0f\xf5w\xa5H+H\xf0\xe9\xb3'
p25
sS'size'
p26
I55
sb.