(iMicroBatch
MicroBatch
p0
(dp1
S'sensor_id'
p2
I1
sS'timestamp'
p3
(F11.994282954139813
I23
tp4
sS'micro_batch_id'
p5
L266942416935400228883547757860658049983L
sS'spatial_coordinates'
p6
(F2.70505387429205
F1.4510420045973715
tp7
sS'device_endpoint'
p8
V10.24.24.106
p9
sS'micro_batch_prop'
p10
(lp11
(Vfoo4
p12
Vbar4
p13
tp14
a(Vfoo1
p15
Vbar1
p16
tp17
a(Vfoo2
p18
Vbar2
p19
tp20
a(Vfoo3
p21
Vbar3
p22
tp23
asS'payload'
p24
S'w\xefC\xa2 /K\xbc\x96\x97w2\x00\xd8*\xfa\xb3\xd1\x0c8\x81t\xec\x108\xc5\x12\xbd`~\x17\x04\xf2\xc3\x81\xbet?x?\xe9EJ\xf7\xed\xc0Y\x06/\x11\xab\x94(\xdfM'
p25
sS'size'
p26
I55
sb.