(iMicroBatch
MicroBatch
p0
(dp1
S'sensor_id'
p2
I1
sS'timestamp'
p3
(F-19.25425449368238
I23
tp4
sS'micro_batch_id'
p5
L266938397136118742654313174658032038847L
sS'spatial_coordinates'
p6
(F1.395792161689882
F1.3228714377107291
tp7
sS'device_endpoint'
p8
V10.24.24.106
p9
sS'micro_batch_prop'
p10
(lp11
(Vfoo4
p12
Vbar4
p13
tp14
a(Vfoo1
p15
Vbar1
p16
tp17
a(Vfoo2
p18
Vbar2
p19
tp20
a(Vfoo3
p21
Vbar3
p22
tp23
asS'payload'
p24
S'>\xa8\xac\x10B`\n\xb1\x10\xd1\x17|\xe3uhON\xad\xcc/\xb0\xf1,\x8b\x8e\xba\xeb\x9d\x19N.9\xb0mp\x9aR\xa4\x97\xb9\\A\xe5\xf4\x06)\xd4g}\x84'
p25
sS'size'
p26
I50
sb.